target datalayout = "e-m:e-p270:32:32-p271:32:32-p272:64:64-i64:64-i128:128-f80:128-n8:16:32:64-S128"
target triple = "x86_64-pc-linux-gnu"

%"class.llvm::StringRef" = type { ptr, i64 }
%"class.llvm::MCSectionMachO" = type { %"class.llvm::MCSection.base", [16 x i8], i32, i32, i32, %"class.llvm::SmallVector.0" }
%"class.llvm::MCSection.base" = type <{ ptr, ptr, ptr, ptr, %"struct.llvm::Align", [3 x i8], i32, i32, i32, i8, [7 x i8], %"class.llvm::MCDummyFragment", %"class.llvm::SmallVector", %"class.llvm::StringRef", i32 }>
%"struct.llvm::Align" = type { i8 }
%"class.llvm::MCDummyFragment" = type { %"class.llvm::MCFragment.base", [2 x i8] }
%"class.llvm::MCFragment.base" = type <{ ptr, ptr, i64, i32, i8, i8 }>
%"class.llvm::SmallVector" = type { %"class.llvm::SmallVectorImpl", %"struct.llvm::SmallVectorStorage" }
%"class.llvm::SmallVectorImpl" = type { %"class.llvm::SmallVectorTemplateBase" }
%"class.llvm::SmallVectorTemplateBase" = type { %"class.llvm::SmallVectorTemplateCommon" }
%"class.llvm::SmallVectorTemplateCommon" = type { %"class.llvm::SmallVectorBase" }
%"class.llvm::SmallVectorBase" = type { ptr, i32, i32 }
%"struct.llvm::SmallVectorStorage" = type { [24 x i8] }
%"class.llvm::SmallVector.0" = type { %"class.llvm::SmallVectorImpl.1" }
%"class.llvm::SmallVectorImpl.1" = type { %"class.llvm::SmallVectorTemplateBase.2" }
%"class.llvm::SmallVectorTemplateBase.2" = type { %"class.llvm::SmallVectorTemplateCommon.3" }
%"class.llvm::SmallVectorTemplateCommon.3" = type { %"class.llvm::SmallVectorBase" }
%"class.llvm::MCSection" = type <{ ptr, ptr, ptr, ptr, %"struct.llvm::Align", [3 x i8], i32, i32, i32, i8, [7 x i8], %"class.llvm::MCDummyFragment", %"class.llvm::SmallVector", %"class.llvm::StringRef", i32, [4 x i8] }>

@.str = private unnamed_addr constant [7 x i8] c"__DATA\00", align 1
@.str.1 = private unnamed_addr constant [11 x i8] c"__cfstring\00", align 1
@.str.2 = private unnamed_addr constant [17 x i8] c"__objc_classrefs\00", align 1

; Function Attrs: mustprogress nounwind uwtable
define linkonce_odr hidden noundef ptr @_ZNK4llvm9StringRef4dataEv(ptr noundef nonnull align 8 dereferenceable(16) %0) #0 comdat align 2 {
  %2 = alloca ptr, align 8
  store ptr %0, ptr %2, align 8
  %3 = load ptr, ptr %2, align 8
  %4 = getelementptr inbounds nuw %"class.llvm::StringRef", ptr %3, i32 0, i32 0
  %5 = load ptr, ptr %4, align 8
  ret ptr %5
}

; Function Attrs: mustprogress nounwind uwtable
define linkonce_odr hidden noundef zeroext i1 @_ZNK4llvm9StringRef5emptyEv(ptr noundef nonnull align 8 dereferenceable(16) %0) #0 comdat align 2 {
  %2 = alloca ptr, align 8
  store ptr %0, ptr %2, align 8
  %3 = load ptr, ptr %2, align 8
  %4 = getelementptr inbounds nuw %"class.llvm::StringRef", ptr %3, i32 0, i32 1
  %5 = load i64, ptr %4, align 8
  %6 = icmp eq i64 %5, 0
  ret i1 %6
}

; Function Attrs: mustprogress nounwind uwtable
define linkonce_odr hidden noundef i64 @_ZNK4llvm9StringRef4sizeEv(ptr noundef nonnull align 8 dereferenceable(16) %0) #0 comdat align 2 {
  %2 = alloca ptr, align 8
  store ptr %0, ptr %2, align 8
  %3 = load ptr, ptr %2, align 8
  %4 = getelementptr inbounds nuw %"class.llvm::StringRef", ptr %3, i32 0, i32 1
  %5 = load i64, ptr %4, align 8
  ret i64 %5
}

; Function Attrs: mustprogress nounwind uwtable
define linkonce_odr hidden noundef i64 @_ZNSt11char_traitsIcE6lengthEPKc(ptr noundef %0) #0 comdat align 2 {
  %2 = alloca ptr, align 8
  store ptr %0, ptr %2, align 8
  %3 = load ptr, ptr %2, align 8
  %4 = call i64 @strlen(ptr noundef %3) #7
  ret i64 %4
}

; Function Attrs: mustprogress nounwind uwtable
define linkonce_odr hidden void @_ZN4llvm9StringRefC2EPKcm(ptr noundef nonnull align 8 dereferenceable(16) %0, ptr noundef %1, i64 noundef %2) unnamed_addr #0 comdat align 2 {
  %4 = alloca ptr, align 8
  %5 = alloca ptr, align 8
  %6 = alloca i64, align 8
  store ptr %0, ptr %4, align 8
  store ptr %1, ptr %5, align 8
  store i64 %2, ptr %6, align 8
  %7 = load ptr, ptr %4, align 8
  %8 = getelementptr inbounds nuw %"class.llvm::StringRef", ptr %7, i32 0, i32 0
  %9 = load ptr, ptr %5, align 8
  store ptr %9, ptr %8, align 8
  %10 = getelementptr inbounds nuw %"class.llvm::StringRef", ptr %7, i32 0, i32 1
  %11 = load i64, ptr %6, align 8
  store i64 %11, ptr %10, align 8
  ret void
}

; Function Attrs: mustprogress nounwind uwtable
define linkonce_odr hidden { ptr, i64 } @_ZNK4llvm9MCSection7getNameEv(ptr noundef nonnull align 8 dereferenceable(148) %0) #0 comdat align 2 {
  %2 = alloca %"class.llvm::StringRef", align 8
  %3 = alloca ptr, align 8
  store ptr %0, ptr %3, align 8
  %4 = load ptr, ptr %3, align 8
  %5 = getelementptr inbounds nuw %"class.llvm::MCSection", ptr %4, i32 0, i32 13
  call void @llvm.memcpy.p0.p0.i64(ptr align 8 %2, ptr align 8 %5, i64 16, i1 false)
  %6 = load { ptr, i64 }, ptr %2, align 8
  ret { ptr, i64 } %6
}

; Function Attrs: mustprogress nounwind uwtable
define linkonce_odr hidden noundef zeroext i1 @_ZN4llvmeqENS_9StringRefES0_(ptr %0, i64 %1, ptr %2, i64 %3) #0 comdat {
  %5 = alloca i1, align 1
  %6 = alloca %"class.llvm::StringRef", align 8
  %7 = alloca %"class.llvm::StringRef", align 8
  %8 = getelementptr inbounds nuw { ptr, i64 }, ptr %6, i32 0, i32 0
  store ptr %0, ptr %8, align 8
  %9 = getelementptr inbounds nuw { ptr, i64 }, ptr %6, i32 0, i32 1
  store i64 %1, ptr %9, align 8
  %10 = getelementptr inbounds nuw { ptr, i64 }, ptr %7, i32 0, i32 0
  store ptr %2, ptr %10, align 8
  %11 = getelementptr inbounds nuw { ptr, i64 }, ptr %7, i32 0, i32 1
  store i64 %3, ptr %11, align 8
  %12 = call noundef i64 @_ZNK4llvm9StringRef4sizeEv(ptr noundef nonnull align 8 dereferenceable(16) %6)
  %13 = call noundef i64 @_ZNK4llvm9StringRef4sizeEv(ptr noundef nonnull align 8 dereferenceable(16) %7)
  %14 = icmp ne i64 %12, %13
  br i1 %14, label %15, label %16

15:                                               ; preds = %4
  store i1 false, ptr %5, align 1
  br label %25

16:                                               ; preds = %4
  %17 = call noundef zeroext i1 @_ZNK4llvm9StringRef5emptyEv(ptr noundef nonnull align 8 dereferenceable(16) %6)
  br i1 %17, label %18, label %19

18:                                               ; preds = %16
  store i1 true, ptr %5, align 1
  br label %25

19:                                               ; preds = %16
  %20 = call noundef ptr @_ZNK4llvm9StringRef4dataEv(ptr noundef nonnull align 8 dereferenceable(16) %6)
  %21 = call noundef ptr @_ZNK4llvm9StringRef4dataEv(ptr noundef nonnull align 8 dereferenceable(16) %7)
  %22 = call noundef i64 @_ZNK4llvm9StringRef4sizeEv(ptr noundef nonnull align 8 dereferenceable(16) %6)
  %23 = call i32 @memcmp(ptr noundef %20, ptr noundef %21, i64 noundef %22) #6
  %24 = icmp eq i32 %23, 0
  store i1 %24, ptr %5, align 1
  br label %25

25:                                               ; preds = %19, %18, %15
  %26 = load i1, ptr %5, align 1
  ret i1 %26
}

; Function Attrs: mustprogress nounwind uwtable
define linkonce_odr hidden void @_ZN4llvm9StringRefC2EPKc(ptr noundef nonnull align 8 dereferenceable(16) %0, ptr noundef %1) unnamed_addr #0 comdat align 2 {
  %3 = alloca ptr, align 8
  %4 = alloca ptr, align 8
  store ptr %0, ptr %3, align 8
  store ptr %1, ptr %4, align 8
  %5 = load ptr, ptr %3, align 8
  %6 = getelementptr inbounds nuw %"class.llvm::StringRef", ptr %5, i32 0, i32 0
  %7 = load ptr, ptr %4, align 8
  store ptr %7, ptr %6, align 8
  %8 = getelementptr inbounds nuw %"class.llvm::StringRef", ptr %5, i32 0, i32 1
  %9 = load ptr, ptr %4, align 8
  %10 = icmp ne ptr %9, null
  br i1 %10, label %11, label %14

11:                                               ; preds = %2
  %12 = load ptr, ptr %4, align 8
  %13 = call noundef i64 @_ZNSt11char_traitsIcE6lengthEPKc(ptr noundef %12)
  br label %15

14:                                               ; preds = %2
  br label %15

15:                                               ; preds = %14, %11
  %16 = phi i64 [ %13, %11 ], [ 0, %14 ]
  store i64 %16, ptr %8, align 8
  ret void
}

; Function Attrs: mustprogress nounwind uwtable
define linkonce_odr hidden { ptr, i64 } @_ZNK4llvm14MCSectionMachO14getSegmentNameEv(ptr noundef nonnull align 8 dereferenceable(192) %0) #0 comdat align 2 {
  %2 = alloca %"class.llvm::StringRef", align 8
  %3 = alloca ptr, align 8
  store ptr %0, ptr %3, align 8
  %4 = load ptr, ptr %3, align 8
  %5 = getelementptr inbounds nuw %"class.llvm::MCSectionMachO", ptr %4, i32 0, i32 1
  %6 = getelementptr inbounds [16 x i8], ptr %5, i64 0, i64 15
  %7 = load i8, ptr %6, align 1
  %8 = icmp ne i8 %7, 0
  br i1 %8, label %9, label %12

9:                                                ; preds = %1
  %10 = getelementptr inbounds nuw %"class.llvm::MCSectionMachO", ptr %4, i32 0, i32 1
  %11 = getelementptr inbounds [16 x i8], ptr %10, i64 0, i64 0
  call void @_ZN4llvm9StringRefC2EPKcm(ptr noundef nonnull align 8 dereferenceable(16) %2, ptr noundef %11, i64 noundef 16)
  br label %15

12:                                               ; preds = %1
  %13 = getelementptr inbounds nuw %"class.llvm::MCSectionMachO", ptr %4, i32 0, i32 1
  %14 = getelementptr inbounds [16 x i8], ptr %13, i64 0, i64 0
  call void @_ZN4llvm9StringRefC2EPKc(ptr noundef nonnull align 8 dereferenceable(16) %2, ptr noundef %14)
  br label %15

15:                                               ; preds = %12, %9
  %16 = load { ptr, i64 }, ptr %2, align 8
  ret { ptr, i64 } %16
}

; Function Attrs: mustprogress nounwind uwtable
define linkonce_odr hidden noundef i32 @_ZNK4llvm14MCSectionMachO7getTypeEv(ptr noundef nonnull align 8 dereferenceable(192) %0) #0 comdat align 2 {
  %2 = alloca ptr, align 8
  store ptr %0, ptr %2, align 8
  %3 = load ptr, ptr %2, align 8
  %4 = getelementptr inbounds nuw %"class.llvm::MCSectionMachO", ptr %3, i32 0, i32 2
  %5 = load i32, ptr %4, align 4
  %6 = and i32 %5, 255
  ret i32 %6
}

; Function Attrs: mustprogress nounwind uwtable
define dso_local noundef zeroext i1 @_ZN4llvm15MCAsmInfoDarwin28isSectionAtomizableBySymbolsERKNS_9MCSectionE(ptr noundef nonnull align 8 dereferenceable(148) %0) #0 align 2 {
  %2 = alloca i1, align 1
  %3 = alloca ptr, align 8
  %4 = alloca ptr, align 8
  %5 = alloca %"class.llvm::StringRef", align 8
  %6 = alloca %"class.llvm::StringRef", align 8
  %7 = alloca %"class.llvm::StringRef", align 8
  %8 = alloca %"class.llvm::StringRef", align 8
  %9 = alloca %"class.llvm::StringRef", align 8
  %10 = alloca %"class.llvm::StringRef", align 8
  %11 = alloca %"class.llvm::StringRef", align 8
  %12 = alloca %"class.llvm::StringRef", align 8
  store ptr %0, ptr %3, align 8
  %13 = load ptr, ptr %3, align 8
  store ptr %13, ptr %4, align 8
  %14 = load ptr, ptr %4, align 8
  %15 = call noundef i32 @_ZNK4llvm14MCSectionMachO7getTypeEv(ptr noundef nonnull align 8 dereferenceable(192) %14)
  %16 = icmp eq i32 %15, 2
  br i1 %16, label %17, label %18

17:                                               ; preds = %1
  store i1 false, ptr %2, align 1
  br label %89

18:                                               ; preds = %1
  %19 = load ptr, ptr %4, align 8
  %20 = call { ptr, i64 } @_ZNK4llvm14MCSectionMachO14getSegmentNameEv(ptr noundef nonnull align 8 dereferenceable(192) %19)
  %21 = getelementptr inbounds nuw { ptr, i64 }, ptr %5, i32 0, i32 0
  %22 = extractvalue { ptr, i64 } %20, 0
  store ptr %22, ptr %21, align 8
  %23 = getelementptr inbounds nuw { ptr, i64 }, ptr %5, i32 0, i32 1
  %24 = extractvalue { ptr, i64 } %20, 1
  store i64 %24, ptr %23, align 8
  call void @_ZN4llvm9StringRefC2EPKc(ptr noundef nonnull align 8 dereferenceable(16) %6, ptr noundef @.str)
  %25 = getelementptr inbounds nuw { ptr, i64 }, ptr %5, i32 0, i32 0
  %26 = load ptr, ptr %25, align 8
  %27 = getelementptr inbounds nuw { ptr, i64 }, ptr %5, i32 0, i32 1
  %28 = load i64, ptr %27, align 8
  %29 = getelementptr inbounds nuw { ptr, i64 }, ptr %6, i32 0, i32 0
  %30 = load ptr, ptr %29, align 8
  %31 = getelementptr inbounds nuw { ptr, i64 }, ptr %6, i32 0, i32 1
  %32 = load i64, ptr %31, align 8
  %33 = call noundef zeroext i1 @_ZN4llvmeqENS_9StringRefES0_(ptr %26, i64 %28, ptr %30, i64 %32)
  br i1 %33, label %34, label %51

34:                                               ; preds = %18
  %35 = load ptr, ptr %4, align 8
  %36 = call { ptr, i64 } @_ZNK4llvm9MCSection7getNameEv(ptr noundef nonnull align 8 dereferenceable(148) %35)
  %37 = getelementptr inbounds nuw { ptr, i64 }, ptr %7, i32 0, i32 0
  %38 = extractvalue { ptr, i64 } %36, 0
  store ptr %38, ptr %37, align 8
  %39 = getelementptr inbounds nuw { ptr, i64 }, ptr %7, i32 0, i32 1
  %40 = extractvalue { ptr, i64 } %36, 1
  store i64 %40, ptr %39, align 8
  call void @_ZN4llvm9StringRefC2EPKc(ptr noundef nonnull align 8 dereferenceable(16) %8, ptr noundef @.str.1)
  %41 = getelementptr inbounds nuw { ptr, i64 }, ptr %7, i32 0, i32 0
  %42 = load ptr, ptr %41, align 8
  %43 = getelementptr inbounds nuw { ptr, i64 }, ptr %7, i32 0, i32 1
  %44 = load i64, ptr %43, align 8
  %45 = getelementptr inbounds nuw { ptr, i64 }, ptr %8, i32 0, i32 0
  %46 = load ptr, ptr %45, align 8
  %47 = getelementptr inbounds nuw { ptr, i64 }, ptr %8, i32 0, i32 1
  %48 = load i64, ptr %47, align 8
  %49 = call noundef zeroext i1 @_ZN4llvmeqENS_9StringRefES0_(ptr %42, i64 %44, ptr %46, i64 %48)
  br i1 %49, label %50, label %51

50:                                               ; preds = %34
  store i1 false, ptr %2, align 1
  br label %89

51:                                               ; preds = %34, %18
  %52 = load ptr, ptr %4, align 8
  %53 = call { ptr, i64 } @_ZNK4llvm14MCSectionMachO14getSegmentNameEv(ptr noundef nonnull align 8 dereferenceable(192) %52)
  %54 = getelementptr inbounds nuw { ptr, i64 }, ptr %9, i32 0, i32 0
  %55 = extractvalue { ptr, i64 } %53, 0
  store ptr %55, ptr %54, align 8
  %56 = getelementptr inbounds nuw { ptr, i64 }, ptr %9, i32 0, i32 1
  %57 = extractvalue { ptr, i64 } %53, 1
  store i64 %57, ptr %56, align 8
  call void @_ZN4llvm9StringRefC2EPKc(ptr noundef nonnull align 8 dereferenceable(16) %10, ptr noundef @.str)
  %58 = getelementptr inbounds nuw { ptr, i64 }, ptr %9, i32 0, i32 0
  %59 = load ptr, ptr %58, align 8
  %60 = getelementptr inbounds nuw { ptr, i64 }, ptr %9, i32 0, i32 1
  %61 = load i64, ptr %60, align 8
  %62 = getelementptr inbounds nuw { ptr, i64 }, ptr %10, i32 0, i32 0
  %63 = load ptr, ptr %62, align 8
  %64 = getelementptr inbounds nuw { ptr, i64 }, ptr %10, i32 0, i32 1
  %65 = load i64, ptr %64, align 8
  %66 = call noundef zeroext i1 @_ZN4llvmeqENS_9StringRefES0_(ptr %59, i64 %61, ptr %63, i64 %65)
  br i1 %66, label %67, label %84

67:                                               ; preds = %51
  %68 = load ptr, ptr %4, align 8
  %69 = call { ptr, i64 } @_ZNK4llvm9MCSection7getNameEv(ptr noundef nonnull align 8 dereferenceable(148) %68)
  %70 = getelementptr inbounds nuw { ptr, i64 }, ptr %11, i32 0, i32 0
  %71 = extractvalue { ptr, i64 } %69, 0
  store ptr %71, ptr %70, align 8
  %72 = getelementptr inbounds nuw { ptr, i64 }, ptr %11, i32 0, i32 1
  %73 = extractvalue { ptr, i64 } %69, 1
  store i64 %73, ptr %72, align 8
  call void @_ZN4llvm9StringRefC2EPKc(ptr noundef nonnull align 8 dereferenceable(16) %12, ptr noundef @.str.2)
  %74 = getelementptr inbounds nuw { ptr, i64 }, ptr %11, i32 0, i32 0
  %75 = load ptr, ptr %74, align 8
  %76 = getelementptr inbounds nuw { ptr, i64 }, ptr %11, i32 0, i32 1
  %77 = load i64, ptr %76, align 8
  %78 = getelementptr inbounds nuw { ptr, i64 }, ptr %12, i32 0, i32 0
  %79 = load ptr, ptr %78, align 8
  %80 = getelementptr inbounds nuw { ptr, i64 }, ptr %12, i32 0, i32 1
  %81 = load i64, ptr %80, align 8
  %82 = call noundef zeroext i1 @_ZN4llvmeqENS_9StringRefES0_(ptr %75, i64 %77, ptr %79, i64 %81)
  br i1 %82, label %83, label %84

83:                                               ; preds = %67
  store i1 false, ptr %2, align 1
  br label %89

84:                                               ; preds = %67, %51
  %85 = load ptr, ptr %4, align 8
  %86 = call noundef i32 @_ZNK4llvm14MCSectionMachO7getTypeEv(ptr noundef nonnull align 8 dereferenceable(192) %85)
  switch i32 %86, label %87 [
    i32 3, label %88
    i32 4, label %88
    i32 14, label %88
    i32 5, label %88
    i32 6, label %88
    i32 7, label %88
    i32 20, label %88
    i32 9, label %88
    i32 10, label %88
    i32 13, label %88
  ]

87:                                               ; preds = %84
  store i1 true, ptr %2, align 1
  br label %89

88:                                               ; preds = %84, %84, %84, %84, %84, %84, %84, %84, %84, %84
  store i1 false, ptr %2, align 1
  br label %89

89:                                               ; preds = %88, %87, %83, %50, %17
  %90 = load i1, ptr %2, align 1
  ret i1 %90
}