; Function Attrs: mustprogress nofree nounwind willreturn memory(read, inaccessiblemem: none) uwtable
define dso_local noundef zeroext i1 @_ZN4llvm15MCAsmInfoDarwin28isSectionAtomizableBySymbolsERKNS_9MCSectionE(ptr noundef nonnull readonly align 8 captures(none) dereferenceable(148) %0) local_unnamed_addr #0 align 2 {
  %2 = getelementptr inbounds nuw i8, ptr %0, i64 164
  %3 = load i32, ptr %2, align 4
  %4 = and i32 %3, 255
  %5 = icmp eq i32 %4, 2
  br i1 %5, label %_ZN4llvmeqENS_9StringRefES0_.exit20.thread, label %6

6:                                                ; preds = %1
  %7 = getelementptr inbounds nuw i8, ptr %0, i64 148
  %8 = getelementptr inbounds nuw i8, ptr %0, i64 163
  %9 = load i8, ptr %8, align 1
  %.not.i = icmp eq i8 %9, 0
  br i1 %.not.i, label %_ZNK4llvm14MCSectionMachO14getSegmentNameEv.exit, label %_ZN4llvmeqENS_9StringRefES0_.exit29.thread

_ZNK4llvm14MCSectionMachO14getSegmentNameEv.exit: ; preds = %6
  %10 = tail call noundef i64 @strlen(ptr noundef nonnull dereferenceable(1) %7) #7
  %11 = icmp eq i64 %10, 6
  br i1 %11, label %_ZN4llvmeqENS_9StringRefES0_.exit, label %_ZNK4llvm14MCSectionMachO14getSegmentNameEv.exit25

_ZN4llvmeqENS_9StringRefES0_.exit:                ; preds = %_ZNK4llvm14MCSectionMachO14getSegmentNameEv.exit
  %bcmp.i = tail call i32 @bcmp(ptr noundef nonnull dereferenceable(6) %7, ptr noundef nonnull dereferenceable(6) @.str, i64 6)
  %12 = icmp eq i32 %bcmp.i, 0
  %.sroa.2.0..sroa_idx.i = getelementptr inbounds nuw i8, ptr %0, i64 136
  %.sroa.2.0.copyload.i = load i64, ptr %.sroa.2.0..sroa_idx.i, align 8
  %.not.i17 = icmp eq i64 %.sroa.2.0.copyload.i, 10
  %or.cond = select i1 %12, i1 %.not.i17, i1 false
  br i1 %or.cond, label %_ZN4llvmeqENS_9StringRefES0_.exit20, label %_ZNK4llvm14MCSectionMachO14getSegmentNameEv.exit25

_ZN4llvmeqENS_9StringRefES0_.exit20:              ; preds = %_ZN4llvmeqENS_9StringRefES0_.exit
  %13 = getelementptr inbounds nuw i8, ptr %0, i64 128
  %.sroa.0.0.copyload.i = load ptr, ptr %13, align 8
  %bcmp.i19 = tail call i32 @bcmp(ptr noundef nonnull dereferenceable(10) %.sroa.0.0.copyload.i, ptr noundef nonnull dereferenceable(10) @.str.1, i64 10)
  %14 = icmp eq i32 %bcmp.i19, 0
  br i1 %14, label %_ZN4llvmeqENS_9StringRefES0_.exit20.thread, label %_ZNK4llvm14MCSectionMachO14getSegmentNameEv.exit25

_ZNK4llvm14MCSectionMachO14getSegmentNameEv.exit25: ; preds = %_ZNK4llvm14MCSectionMachO14getSegmentNameEv.exit, %_ZN4llvmeqENS_9StringRefES0_.exit20, %_ZN4llvmeqENS_9StringRefES0_.exit
  %15 = tail call noundef i64 @strlen(ptr noundef nonnull dereferenceable(1) %7) #7
  %.not.i26 = icmp eq i64 %15, 6
  br i1 %.not.i26, label %_ZN4llvmeqENS_9StringRefES0_.exit29, label %_ZN4llvmeqENS_9StringRefES0_.exit29.thread

_ZN4llvmeqENS_9StringRefES0_.exit29:              ; preds = %_ZNK4llvm14MCSectionMachO14getSegmentNameEv.exit25
  %bcmp.i28 = tail call i32 @bcmp(ptr noundef nonnull dereferenceable(6) %7, ptr noundef nonnull dereferenceable(6) @.str, i64 6)
  %16 = icmp eq i32 %bcmp.i28, 0
  %.sroa.2.0..sroa_idx.i31 = getelementptr inbounds nuw i8, ptr %0, i64 136
  %.sroa.2.0.copyload.i32 = load i64, ptr %.sroa.2.0..sroa_idx.i31, align 8
  %.not.i35 = icmp eq i64 %.sroa.2.0.copyload.i32, 16
  %or.cond64 = select i1 %16, i1 %.not.i35, i1 false
  br i1 %or.cond64, label %_ZN4llvmeqENS_9StringRefES0_.exit38, label %_ZN4llvmeqENS_9StringRefES0_.exit29.thread

_ZN4llvmeqENS_9StringRefES0_.exit38:              ; preds = %_ZN4llvmeqENS_9StringRefES0_.exit29
  %17 = getelementptr inbounds nuw i8, ptr %0, i64 128
  %.sroa.0.0.copyload.i30 = load ptr, ptr %17, align 8
  %bcmp.i37 = tail call i32 @bcmp(ptr noundef nonnull dereferenceable(16) %.sroa.0.0.copyload.i30, ptr noundef nonnull dereferenceable(16) @.str.2, i64 16)
  %18 = icmp eq i32 %bcmp.i37, 0
  br i1 %18, label %_ZN4llvmeqENS_9StringRefES0_.exit20.thread, label %_ZN4llvmeqENS_9StringRefES0_.exit29.thread

_ZN4llvmeqENS_9StringRefES0_.exit29.thread:       ; preds = %6, %_ZNK4llvm14MCSectionMachO14getSegmentNameEv.exit25, %_ZN4llvmeqENS_9StringRefES0_.exit38, %_ZN4llvmeqENS_9StringRefES0_.exit29
  %trunc = trunc i32 %3 to i8
  %19 = icmp ult i8 %trunc, 21
  br i1 %19, label %switch.lookup, label %_ZN4llvmeqENS_9StringRefES0_.exit20.thread

switch.lookup:                                    ; preds = %_ZN4llvmeqENS_9StringRefES0_.exit29.thread
  %20 = trunc i32 %3 to i21
  %switch.cast = and i21 %20, 31
  %switch.downshift = lshr i21 1022215, %switch.cast
  %switch.masked = trunc i21 %switch.downshift to i1
  br label %_ZN4llvmeqENS_9StringRefES0_.exit20.thread

_ZN4llvmeqENS_9StringRefES0_.exit20.thread:       ; preds = %switch.lookup, %_ZN4llvmeqENS_9StringRefES0_.exit29.thread, %_ZN4llvmeqENS_9StringRefES0_.exit38, %_ZN4llvmeqENS_9StringRefES0_.exit20, %1
  %.0 = phi i1 [ false, %1 ], [ false, %_ZN4llvmeqENS_9StringRefES0_.exit20 ], [ false, %_ZN4llvmeqENS_9StringRefES0_.exit38 ], [ true, %_ZN4llvmeqENS_9StringRefES0_.exit29.thread ], [ %switch.masked, %switch.lookup ]
  ret i1 %.0
}